; Function Attrs: mustprogress uwtable
define internal noundef nonnull ptr @"_ZNSt17_Function_handlerIFPN7xgboost6MetricEPKcENS0_6metric3$_3EE9_M_invokeERKSt9_Any_dataOS4_"(ptr nonnull readnone align 8 captures(none) %0, ptr noundef nonnull readonly align 8 captures(none) dereferenceable(8) %1) #12 align 2 personality ptr @__gxx_personality_v0 {
  %.val = load ptr, ptr %1, align 8, !tbaa !49
  %3 = tail call noalias noundef nonnull dereferenceable(280) ptr @_Znwm(i64 noundef 280) #40
  invoke void @_ZN7xgboost6metric17EvalRankWithCacheINS_3ltr8MAPCacheEEC2ENS_10StringViewEPKc(ptr noundef nonnull align 8 dereferenceable(280) %3, ptr nonnull @.str.10, i64 3, ptr noundef %.val)
          to label %"_ZSt10__invoke_rIPN7xgboost6MetricERNS0_6metric3$_3EJPKcEENSt9enable_ifIX16is_invocable_r_vIT_T0_DpT1_EES9_E4typeEOSA_DpOSB_.exit" unwind label %4

4:                                                ; preds = %2
  %5 = landingpad { ptr, i32 }
          cleanup
  tail call void @_ZdlPvm(ptr noundef nonnull %3, i64 noundef 280) #41
  resume { ptr, i32 } %5

"_ZSt10__invoke_rIPN7xgboost6MetricERNS0_6metric3$_3EJPKcEENSt9enable_ifIX16is_invocable_r_vIT_T0_DpT1_EES9_E4typeEOSA_DpOSB_.exit": ; preds = %2
  store ptr getelementptr inbounds nuw inrange(-16, 64) (i8, ptr @_ZTVN7xgboost6metric12EvalMAPScoreE, i64 16), ptr %3, align 8, !tbaa !55
  ret ptr %3
}